target datalayout = "e-m:e-p270:32:32-p271:32:32-p272:64:64-i64:64-i128:128-f80:128-n8:16:32:64-S128"
target triple = "x86_64-pc-linux-gnu"

%class.TestData = type { ptr, ptr, ptr, ptr, ptr, i32, i32, i32, i32 }
%class.RBTestData = type { %class.TestData, ptr, ptr, ptr, ptr }

@_ZTV8TestData = unnamed_addr constant { [7 x ptr] } { [7 x ptr] [ptr null, ptr @_ZTI8TestData, ptr @_ZN8TestDataD1Ev, ptr @_ZN8TestDataD0Ev, ptr @__cxa_pure_virtual, ptr @__cxa_pure_virtual, ptr @__cxa_pure_virtual] }, align 8
@.str = private unnamed_addr constant [8 x i8] c"Headers\00", align 1
@.str.1 = private unnamed_addr constant [9 x i8] c"Settings\00", align 1
@.str.2 = private unnamed_addr constant [5 x i8] c"Info\00", align 1
@.str.3 = private unnamed_addr constant [6 x i8] c"Cases\00", align 1

; Function Attrs: inlinehint mustprogress nounwind uwtable
define internal noundef signext i8 @_ZL9U_SUCCESS10UErrorCode(i32 noundef %0) #5 {
  %2 = alloca i32, align 4
  store i32 %0, ptr %2, align 4, !tbaa !33
  %3 = load i32, ptr %2, align 4, !tbaa !33
  %4 = icmp sle i32 %3, 0
  %5 = zext i1 %4 to i8
  ret i8 %5
}

; Function Attrs: mustprogress nounwind uwtable
define void @_ZN8TestDataC2EPKc(ptr noundef nonnull align 8 dereferenceable(56) %0, ptr noundef %1) unnamed_addr #0 align 2 {
  %3 = alloca ptr, align 8
  %4 = alloca ptr, align 8
  store ptr %0, ptr %3, align 8, !tbaa !3
  store ptr %1, ptr %4, align 8, !tbaa !8
  %5 = load ptr, ptr %3, align 8
  store ptr getelementptr inbounds inrange(-16, 40) ({ [7 x ptr] }, ptr @_ZTV8TestData, i32 0, i32 0, i32 2), ptr %5, align 8, !tbaa !10
  %6 = getelementptr inbounds nuw %class.TestData, ptr %5, i32 0, i32 1
  %7 = load ptr, ptr %4, align 8, !tbaa !8
  store ptr %7, ptr %6, align 8, !tbaa !12
  %8 = getelementptr inbounds nuw %class.TestData, ptr %5, i32 0, i32 2
  store ptr null, ptr %8, align 8, !tbaa !16
  %9 = getelementptr inbounds nuw %class.TestData, ptr %5, i32 0, i32 3
  store ptr null, ptr %9, align 8, !tbaa !17
  %10 = getelementptr inbounds nuw %class.TestData, ptr %5, i32 0, i32 4
  store ptr null, ptr %10, align 8, !tbaa !18
  %11 = getelementptr inbounds nuw %class.TestData, ptr %5, i32 0, i32 5
  store i32 0, ptr %11, align 8, !tbaa !19
  %12 = getelementptr inbounds nuw %class.TestData, ptr %5, i32 0, i32 6
  store i32 0, ptr %12, align 4, !tbaa !20
  %13 = getelementptr inbounds nuw %class.TestData, ptr %5, i32 0, i32 7
  store i32 0, ptr %13, align 8, !tbaa !21
  %14 = getelementptr inbounds nuw %class.TestData, ptr %5, i32 0, i32 8
  store i32 0, ptr %14, align 4, !tbaa !22
  ret void
}

; Function Attrs: mustprogress uwtable
define void @_ZN10RBTestDataC2EP15UResourceBundleS1_R10UErrorCode(ptr noundef nonnull align 8 dereferenceable(88) %0, ptr noundef %1, ptr noundef %2, ptr noundef nonnull align 4 dereferenceable(4) %3) unnamed_addr #2 align 2 personality ptr @__gxx_personality_v0 {
  %5 = alloca ptr, align 8
  %6 = alloca ptr, align 8
  %7 = alloca ptr, align 8
  %8 = alloca ptr, align 8
  %9 = alloca i32, align 4
  %10 = alloca ptr, align 8
  %11 = alloca ptr, align 8
  %12 = alloca i32, align 4
  %13 = alloca ptr, align 8
  store ptr %0, ptr %5, align 8, !tbaa !23
  store ptr %1, ptr %6, align 8, !tbaa !31
  store ptr %2, ptr %7, align 8, !tbaa !31
  store ptr %3, ptr %8, align 8, !tbaa !32
  %14 = load ptr, ptr %5, align 8
  %15 = load ptr, ptr %6, align 8, !tbaa !31
  %16 = call ptr @ures_getKey_77(ptr noundef %15)
  call void @_ZN8TestDataC2EPKc(ptr noundef nonnull align 8 dereferenceable(56) %14, ptr noundef %16)
  store ptr getelementptr inbounds inrange(-16, 40) ({ [7 x ptr] }, ptr @_ZTV10RBTestData, i32 0, i32 0, i32 2), ptr %14, align 8, !tbaa !10
  %17 = getelementptr inbounds nuw %class.RBTestData, ptr %14, i32 0, i32 1
  %18 = load ptr, ptr %6, align 8, !tbaa !31
  store ptr %18, ptr %17, align 8, !tbaa !25
  %19 = getelementptr inbounds nuw %class.RBTestData, ptr %14, i32 0, i32 2
  %20 = load ptr, ptr %7, align 8, !tbaa !31
  store ptr %20, ptr %19, align 8, !tbaa !28
  %21 = getelementptr inbounds nuw %class.RBTestData, ptr %14, i32 0, i32 3
  store ptr null, ptr %21, align 8, !tbaa !29
  %22 = getelementptr inbounds nuw %class.RBTestData, ptr %14, i32 0, i32 4
  store ptr null, ptr %22, align 8, !tbaa !30
  call void @llvm.lifetime.start.p0(i64 4, ptr %9) #9
  store i32 0, ptr %9, align 4, !tbaa !33
  call void @llvm.lifetime.start.p0(i64 8, ptr %10) #9
  %23 = load ptr, ptr %6, align 8, !tbaa !31
  %24 = invoke ptr @ures_getByKey_77(ptr noundef %23, ptr noundef @.str, ptr noundef null, ptr noundef %9)
          to label %25 unwind label %34

25:                                               ; preds = %4
  store ptr %24, ptr %10, align 8, !tbaa !31
  %26 = load i32, ptr %9, align 4, !tbaa !33
  %27 = icmp eq i32 %26, 0
  br i1 %27, label %28, label %38

28:                                               ; preds = %25
  %29 = getelementptr inbounds nuw %class.RBTestData, ptr %14, i32 0, i32 2
  %30 = load ptr, ptr %29, align 8, !tbaa !28
  invoke void @ures_close_77(ptr noundef %30)
          to label %31 unwind label %34

31:                                               ; preds = %28
  %32 = load ptr, ptr %10, align 8, !tbaa !31
  %33 = getelementptr inbounds nuw %class.RBTestData, ptr %14, i32 0, i32 2
  store ptr %32, ptr %33, align 8, !tbaa !28
  br label %39

34:                                               ; preds = %42, %39, %28, %4
  %35 = landingpad { ptr, i32 }
          cleanup
  %36 = extractvalue { ptr, i32 } %35, 0
  store ptr %36, ptr %11, align 8
  %37 = extractvalue { ptr, i32 } %35, 1
  store i32 %37, ptr %12, align 4
  br label %86

38:                                               ; preds = %25
  store i32 0, ptr %9, align 4, !tbaa !33
  br label %39

39:                                               ; preds = %38, %31
  %40 = load ptr, ptr %6, align 8, !tbaa !31
  %41 = invoke ptr @ures_getByKey_77(ptr noundef %40, ptr noundef @.str.1, ptr noundef null, ptr noundef %9)
          to label %42 unwind label %34

42:                                               ; preds = %39
  %43 = getelementptr inbounds nuw %class.RBTestData, ptr %14, i32 0, i32 3
  store ptr %41, ptr %43, align 8, !tbaa !29
  %44 = getelementptr inbounds nuw %class.RBTestData, ptr %14, i32 0, i32 3
  %45 = load ptr, ptr %44, align 8, !tbaa !29
  %46 = invoke i32 @ures_getSize_77(ptr noundef %45)
          to label %47 unwind label %34

47:                                               ; preds = %42
  %48 = getelementptr inbounds nuw %class.TestData, ptr %14, i32 0, i32 5
  store i32 %46, ptr %48, align 8, !tbaa !19
  call void @llvm.lifetime.start.p0(i64 8, ptr %13) #9
  %49 = load ptr, ptr %6, align 8, !tbaa !31
  %50 = invoke ptr @ures_getByKey_77(ptr noundef %49, ptr noundef @.str.2, ptr noundef null, ptr noundef %9)
          to label %51 unwind label %63

51:                                               ; preds = %47
  store ptr %50, ptr %13, align 8, !tbaa !31
  %52 = load i32, ptr %9, align 4, !tbaa !33
  %53 = invoke noundef signext i8 @_ZL9U_SUCCESS10UErrorCode(i32 noundef %52)
          to label %54 unwind label %63

54:                                               ; preds = %51
  %55 = icmp ne i8 %53, 0
  br i1 %55, label %56, label %71

56:                                               ; preds = %54
  %57 = invoke noalias noundef nonnull ptr @_Znwm(i64 noundef 16) #11
          to label %58 unwind label %63

58:                                               ; preds = %56
  %59 = load ptr, ptr %13, align 8, !tbaa !31
  %60 = load ptr, ptr %8, align 8, !tbaa !32
  invoke void @_ZN9RBDataMapC1EP15UResourceBundleR10UErrorCode(ptr noundef nonnull align 8 dereferenceable(16) %57, ptr noundef %59, ptr noundef nonnull align 4 dereferenceable(4) %60)
          to label %61 unwind label %67

61:                                               ; preds = %58
  %62 = getelementptr inbounds nuw %class.TestData, ptr %14, i32 0, i32 2
  store ptr %57, ptr %62, align 8, !tbaa !16
  br label %72

63:                                               ; preds = %81, %76, %72, %56, %51, %47
  %64 = landingpad { ptr, i32 }
          cleanup
  %65 = extractvalue { ptr, i32 } %64, 0
  store ptr %65, ptr %11, align 8
  %66 = extractvalue { ptr, i32 } %64, 1
  store i32 %66, ptr %12, align 4
  br label %85

67:                                               ; preds = %58
  %68 = landingpad { ptr, i32 }
          cleanup
  %69 = extractvalue { ptr, i32 } %68, 0
  store ptr %69, ptr %11, align 8
  %70 = extractvalue { ptr, i32 } %68, 1
  store i32 %70, ptr %12, align 4
  call void @_ZdlPvm(ptr noundef %57, i64 noundef 16) #12
  br label %85

71:                                               ; preds = %54
  store i32 0, ptr %9, align 4, !tbaa !33
  br label %72

72:                                               ; preds = %71, %61
  %73 = load ptr, ptr %6, align 8, !tbaa !31
  %74 = load ptr, ptr %8, align 8, !tbaa !32
  %75 = invoke ptr @ures_getByKey_77(ptr noundef %73, ptr noundef @.str.3, ptr noundef null, ptr noundef %74)
          to label %76 unwind label %63

76:                                               ; preds = %72
  %77 = getelementptr inbounds nuw %class.RBTestData, ptr %14, i32 0, i32 4
  store ptr %75, ptr %77, align 8, !tbaa !30
  %78 = getelementptr inbounds nuw %class.RBTestData, ptr %14, i32 0, i32 4
  %79 = load ptr, ptr %78, align 8, !tbaa !30
  %80 = invoke i32 @ures_getSize_77(ptr noundef %79)
          to label %81 unwind label %63

81:                                               ; preds = %76
  %82 = getelementptr inbounds nuw %class.TestData, ptr %14, i32 0, i32 6
  store i32 %80, ptr %82, align 4, !tbaa !20
  %83 = load ptr, ptr %13, align 8, !tbaa !31
  invoke void @ures_close_77(ptr noundef %83)
          to label %84 unwind label %63

84:                                               ; preds = %81
  call void @llvm.lifetime.end.p0(i64 8, ptr %13) #9
  call void @llvm.lifetime.end.p0(i64 8, ptr %10) #9
  call void @llvm.lifetime.end.p0(i64 4, ptr %9) #9
  ret void

85:                                               ; preds = %67, %63
  call void @llvm.lifetime.end.p0(i64 8, ptr %13) #9
  br label %86

86:                                               ; preds = %85, %34
  call void @llvm.lifetime.end.p0(i64 8, ptr %10) #9
  call void @llvm.lifetime.end.p0(i64 4, ptr %9) #9
  call void @_ZN8TestDataD2Ev(ptr noundef nonnull align 8 dereferenceable(56) %14) #9
  br label %87

87:                                               ; preds = %86
  %88 = load ptr, ptr %11, align 8
  %89 = load i32, ptr %12, align 4
  %90 = insertvalue { ptr, i32 } poison, ptr %88, 0
  %91 = insertvalue { ptr, i32 } %90, i32 %89, 1
  resume { ptr, i32 } %91
}