; Function Attrs: mustprogress uwtable
define void @_ZN10RBTestDataC2EP15UResourceBundleS1_R10UErrorCode(ptr noundef nonnull align 8 captures(none) dereferenceable(88) initializes((0, 88)) %0, ptr noundef %1, ptr noundef %2, ptr noundef nonnull align 4 dereferenceable(4) %3) unnamed_addr #5 align 2 personality ptr @__gxx_personality_v0 {
  %5 = alloca i32, align 4
  %6 = tail call ptr @ures_getKey_77(ptr noundef %1)
  %7 = getelementptr inbounds nuw i8, ptr %0, i64 8
  store ptr %6, ptr %7, align 8, !tbaa !6
  %8 = getelementptr inbounds nuw i8, ptr %0, i64 16
  tail call void @llvm.memset.p0.i64(ptr noundef nonnull align 8 dereferenceable(40) %8, i8 0, i64 40, i1 false)
  store ptr getelementptr inbounds nuw inrange(-16, 40) (i8, ptr @_ZTV10RBTestData, i64 16), ptr %0, align 8, !tbaa !3
  %9 = getelementptr inbounds nuw i8, ptr %0, i64 56
  store ptr %1, ptr %9, align 8, !tbaa !16
  %10 = getelementptr inbounds nuw i8, ptr %0, i64 64
  store ptr %2, ptr %10, align 8, !tbaa !19
  %11 = getelementptr inbounds nuw i8, ptr %0, i64 72
  %12 = getelementptr inbounds nuw i8, ptr %0, i64 80
  tail call void @llvm.memset.p0.i64(ptr noundef nonnull align 8 dereferenceable(16) %11, i8 0, i64 16, i1 false)
  call void @llvm.lifetime.start.p0(i64 4, ptr nonnull %5) #14
  store i32 0, ptr %5, align 4, !tbaa !20
  %13 = invoke ptr @ures_getByKey_77(ptr noundef %1, ptr noundef nonnull @.str, ptr noundef null, ptr noundef nonnull %5)
          to label %14 unwind label %20

14:                                               ; preds = %4
  %15 = load i32, ptr %5, align 4, !tbaa !20
  %16 = icmp eq i32 %15, 0
  br i1 %16, label %17, label %22

17:                                               ; preds = %14
  %18 = load ptr, ptr %10, align 8, !tbaa !19
  invoke void @ures_close_77(ptr noundef %18)
          to label %19 unwind label %20

19:                                               ; preds = %17
  store ptr %13, ptr %10, align 8, !tbaa !19
  br label %23

20:                                               ; preds = %25, %23, %17, %4
  %21 = landingpad { ptr, i32 }
          cleanup
  br label %49

22:                                               ; preds = %14
  store i32 0, ptr %5, align 4, !tbaa !20
  br label %23

23:                                               ; preds = %22, %19
  %24 = invoke ptr @ures_getByKey_77(ptr noundef %1, ptr noundef nonnull @.str.1, ptr noundef null, ptr noundef nonnull %5)
          to label %25 unwind label %20

25:                                               ; preds = %23
  store ptr %24, ptr %11, align 8, !tbaa !22
  %26 = invoke i32 @ures_getSize_77(ptr noundef %24)
          to label %27 unwind label %20

27:                                               ; preds = %25
  %28 = getelementptr inbounds nuw i8, ptr %0, i64 40
  store i32 %26, ptr %28, align 8, !tbaa !23
  %29 = invoke ptr @ures_getByKey_77(ptr noundef %1, ptr noundef nonnull @.str.2, ptr noundef null, ptr noundef nonnull %5)
          to label %30 unwind label %37

30:                                               ; preds = %27
  %31 = load i32, ptr %5, align 4, !tbaa !20
  %32 = icmp sgt i32 %31, 0
  br i1 %32, label %41, label %33

33:                                               ; preds = %30
  %34 = invoke noalias noundef nonnull dereferenceable(16) ptr @_Znwm(i64 noundef 16) #16
          to label %35 unwind label %37

35:                                               ; preds = %33
  invoke void @_ZN9RBDataMapC1EP15UResourceBundleR10UErrorCode(ptr noundef nonnull align 8 dereferenceable(16) %34, ptr noundef %29, ptr noundef nonnull align 4 dereferenceable(4) %3)
          to label %36 unwind label %39

36:                                               ; preds = %35
  store ptr %34, ptr %8, align 8, !tbaa !13
  br label %42

37:                                               ; preds = %46, %44, %42, %33, %27
  %38 = landingpad { ptr, i32 }
          cleanup
  br label %49

39:                                               ; preds = %35
  %40 = landingpad { ptr, i32 }
          cleanup
  call void @_ZdlPvm(ptr noundef nonnull %34, i64 noundef 16) #17
  br label %49

41:                                               ; preds = %30
  store i32 0, ptr %5, align 4, !tbaa !20
  br label %42

42:                                               ; preds = %41, %36
  %43 = invoke ptr @ures_getByKey_77(ptr noundef %1, ptr noundef nonnull @.str.3, ptr noundef null, ptr noundef nonnull %3)
          to label %44 unwind label %37

44:                                               ; preds = %42
  store ptr %43, ptr %12, align 8, !tbaa !24
  %45 = invoke i32 @ures_getSize_77(ptr noundef %43)
          to label %46 unwind label %37

46:                                               ; preds = %44
  %47 = getelementptr inbounds nuw i8, ptr %0, i64 44
  store i32 %45, ptr %47, align 4, !tbaa !25
  invoke void @ures_close_77(ptr noundef %29)
          to label %48 unwind label %37

48:                                               ; preds = %46
  call void @llvm.lifetime.end.p0(i64 4, ptr nonnull %5) #14
  ret void

49:                                               ; preds = %37, %39, %20
  %.pn.pn = phi { ptr, i32 } [ %21, %20 ], [ %38, %37 ], [ %40, %39 ]
  call void @llvm.lifetime.end.p0(i64 4, ptr nonnull %5) #14
  call void @_ZN8TestDataD2Ev(ptr noundef nonnull align 8 dereferenceable(56) %0) #14
  resume { ptr, i32 } %.pn.pn
}